target datalayout = "e-m:e-p270:32:32-p271:32:32-p272:64:64-i64:64-i128:128-f80:128-n8:16:32:64-S128"
target triple = "x86_64-pc-linux-gnu"

%class.QString = type { %struct.QArrayDataPointer }
%struct.QArrayDataPointer = type { ptr, ptr, i64 }
%class.QSize = type { i32, i32 }
%class.ApplyLineEdit = type { %class.QLineEdit, %class.QString, i8, ptr }
%class.QLineEdit = type { %class.QWidget }
%class.QWidget = type { %class.QObject, %class.QPaintDevice.base, ptr }
%class.QObject = type { ptr, %class.QScopedPointer }
%class.QScopedPointer = type { ptr }
%class.QPaintDevice.base = type <{ ptr, i16 }>
%class.QRect = type { i32, i32, i32, i32 }
%class.QPoint = type { i32, i32 }
%class.QWidgetData = type { i64, i32, %class.QFlags.6, i32, %class.QRect, [4 x i8], %class.QPalette, %class.QFont, %class.QRect }
%class.QFlags.6 = type { i32 }
%class.QPalette = type <{ ptr, i32, [4 x i8] }>
%class.QFont = type <{ %class.QExplicitlySharedDataPointer.7, i32, [4 x i8] }>
%class.QExplicitlySharedDataPointer.7 = type { ptr }

; Function Attrs: inlinehint mustprogress nounwind null_pointer_is_valid sspstrong uwtable
define linkonce_odr noundef i32 @_ZNK5QRect6heightEv(ptr noundef align 4 dereferenceable_or_null(16) %0) #2 comdat align 2 {
  %2 = alloca ptr, align 8
  store ptr %0, ptr %2, align 8
  %3 = load ptr, ptr %2, align 8
  %4 = getelementptr inbounds nuw %class.QRect, ptr %3, i32 0, i32 3
  %5 = load i32, ptr %4, align 4
  %6 = getelementptr inbounds nuw %class.QRect, ptr %3, i32 0, i32 1
  %7 = load i32, ptr %6, align 4
  %8 = sub i32 %5, %7
  %9 = add i32 %8, 1
  ret i32 %9
}

; Function Attrs: inlinehint mustprogress nounwind null_pointer_is_valid sspstrong uwtable
define linkonce_odr void @_ZN6QPointC2Eii(ptr noundef align 4 dereferenceable_or_null(8) %0, i32 noundef %1, i32 noundef %2) unnamed_addr #2 comdat align 2 {
  %4 = alloca ptr, align 8
  %5 = alloca i32, align 4
  %6 = alloca i32, align 4
  store ptr %0, ptr %4, align 8
  store i32 %1, ptr %5, align 4
  store i32 %2, ptr %6, align 4
  %7 = load ptr, ptr %4, align 8
  %8 = getelementptr inbounds nuw %class.QPoint, ptr %7, i32 0, i32 0
  %9 = load i32, ptr %5, align 4
  store i32 %9, ptr %8, align 4
  %10 = getelementptr inbounds nuw %class.QPoint, ptr %7, i32 0, i32 1
  %11 = load i32, ptr %6, align 4
  store i32 %11, ptr %10, align 4
  ret void
}

; Function Attrs: inlinehint mustprogress nounwind null_pointer_is_valid sspstrong uwtable
define linkonce_odr noundef i32 @_ZNK7QWidget6heightEv(ptr noundef align 8 dereferenceable_or_null(40) %0) #2 comdat align 2 {
  %2 = alloca ptr, align 8
  store ptr %0, ptr %2, align 8
  %3 = load ptr, ptr %2, align 8
  %4 = getelementptr inbounds nuw %class.QWidget, ptr %3, i32 0, i32 2
  %5 = load ptr, ptr %4, align 8
  %6 = getelementptr inbounds nuw %class.QWidgetData, ptr %5, i32 0, i32 4
  %7 = call noundef i32 @_ZNK5QRect6heightEv(ptr noundef align 4 dereferenceable_or_null(16) %6) #15
  ret i32 %7
}

; Function Attrs: inlinehint mustprogress null_pointer_is_valid sspstrong uwtable
define linkonce_odr void @_ZN7QWidget4moveEii(ptr noundef align 8 dereferenceable_or_null(40) %0, i32 noundef %1, i32 noundef %2) #6 comdat align 2 {
  %4 = alloca ptr, align 8
  %5 = alloca i32, align 4
  %6 = alloca i32, align 4
  %7 = alloca %class.QPoint, align 4
  store ptr %0, ptr %4, align 8
  store i32 %1, ptr %5, align 4
  store i32 %2, ptr %6, align 4
  %8 = load ptr, ptr %4, align 8
  call void @llvm.lifetime.start.p0(i64 8, ptr %7) #15
  %9 = load i32, ptr %5, align 4
  %10 = load i32, ptr %6, align 4
  call void @_ZN6QPointC2Eii(ptr noundef align 4 dereferenceable_or_null(8) %7, i32 noundef %9, i32 noundef %10) #15
  call void @_ZN7QWidget4moveERK6QPoint(ptr noundef align 8 dereferenceable_or_null(40) %8, ptr noundef align 4 dereferenceable(8) %7)
  call void @llvm.lifetime.end.p0(i64 8, ptr %7) #15
  ret void
}

; Function Attrs: inlinehint mustprogress nounwind null_pointer_is_valid sspstrong uwtable
define linkonce_odr noundef i32 @_ZNK6QPoint1yEv(ptr noundef align 4 dereferenceable_or_null(8) %0) #2 comdat align 2 {
  %2 = alloca ptr, align 8
  store ptr %0, ptr %2, align 8
  %3 = load ptr, ptr %2, align 8
  %4 = getelementptr inbounds nuw %class.QPoint, ptr %3, i32 0, i32 1
  %5 = load i32, ptr %4, align 4
  ret i32 %5
}

; Function Attrs: inlinehint mustprogress nounwind null_pointer_is_valid sspstrong uwtable
define linkonce_odr noundef i32 @_ZNK5QRect3topEv(ptr noundef align 4 dereferenceable_or_null(16) %0) #2 comdat align 2 {
  %2 = alloca ptr, align 8
  store ptr %0, ptr %2, align 8
  %3 = load ptr, ptr %2, align 8
  %4 = getelementptr inbounds nuw %class.QRect, ptr %3, i32 0, i32 1
  %5 = load i32, ptr %4, align 4
  ret i32 %5
}

; Function Attrs: inlinehint mustprogress nounwind null_pointer_is_valid sspstrong uwtable
define linkonce_odr noundef i32 @_ZNK5QSize5widthEv(ptr noundef align 4 dereferenceable_or_null(8) %0) #2 comdat align 2 {
  %2 = alloca ptr, align 8
  store ptr %0, ptr %2, align 8
  %3 = load ptr, ptr %2, align 8
  %4 = getelementptr inbounds nuw %class.QSize, ptr %3, i32 0, i32 0
  %5 = load i32, ptr %4, align 4
  ret i32 %5
}

; Function Attrs: inlinehint mustprogress nounwind null_pointer_is_valid sspstrong uwtable
define linkonce_odr noundef i32 @_ZNK6QPoint1xEv(ptr noundef align 4 dereferenceable_or_null(8) %0) #2 comdat align 2 {
  %2 = alloca ptr, align 8
  store ptr %0, ptr %2, align 8
  %3 = load ptr, ptr %2, align 8
  %4 = getelementptr inbounds nuw %class.QPoint, ptr %3, i32 0, i32 0
  %5 = load i32, ptr %4, align 4
  ret i32 %5
}

; Function Attrs: inlinehint mustprogress nounwind null_pointer_is_valid sspstrong uwtable
define linkonce_odr noundef i32 @_ZNK5QRect5rightEv(ptr noundef align 4 dereferenceable_or_null(16) %0) #2 comdat align 2 {
  %2 = alloca ptr, align 8
  store ptr %0, ptr %2, align 8
  %3 = load ptr, ptr %2, align 8
  %4 = getelementptr inbounds nuw %class.QRect, ptr %3, i32 0, i32 2
  %5 = load i32, ptr %4, align 4
  ret i32 %5
}

; Function Attrs: mustprogress null_pointer_is_valid sspstrong uwtable
define void @_ZN13ApplyLineEdit11resizeEventEP12QResizeEvent(ptr noundef align 8 dereferenceable_or_null(80) %0, ptr noundef %1) unnamed_addr #0 align 2 {
  %3 = alloca ptr, align 8
  %4 = alloca ptr, align 8
  %5 = alloca i32, align 4
  %6 = alloca %class.QSize, align 4
  %7 = alloca %class.QRect, align 4
  %8 = alloca %class.QPoint, align 4
  %9 = alloca %class.QRect, align 4
  %10 = alloca %class.QPoint, align 4
  store ptr %0, ptr %3, align 8
  store ptr %1, ptr %4, align 8
  %11 = load ptr, ptr %3, align 8
  call void @llvm.lifetime.start.p0(i64 4, ptr %5) #15
  %12 = call noundef ptr @_ZNK7QWidget5styleEv(ptr noundef align 8 dereferenceable_or_null(40) %11)
  %13 = load ptr, ptr %12, align 8
  %14 = getelementptr inbounds ptr, ptr %13, i64 28
  %15 = load ptr, ptr %14, align 8
  %16 = call noundef i32 %15(ptr noundef align 8 dereferenceable_or_null(16) %12, i32 noundef 5, ptr noundef null, ptr noundef null)
  store i32 %16, ptr %5, align 4
  call void @llvm.lifetime.start.p0(i64 8, ptr %6) #15
  %17 = getelementptr inbounds nuw %class.ApplyLineEdit, ptr %11, i32 0, i32 3
  %18 = load ptr, ptr %17, align 8
  %19 = load ptr, ptr %18, align 8
  %20 = getelementptr inbounds ptr, ptr %19, i64 14
  %21 = load ptr, ptr %20, align 8
  %22 = call i64 %21(ptr noundef align 8 dereferenceable_or_null(40) %18)
  store i64 %22, ptr %6, align 4
  %23 = getelementptr inbounds nuw %class.ApplyLineEdit, ptr %11, i32 0, i32 3
  %24 = load ptr, ptr %23, align 8
  call void @llvm.lifetime.start.p0(i64 16, ptr %7) #15
  %25 = call { i64, i64 } @_ZNK7QWidget12contentsRectEv(ptr noundef align 8 dereferenceable_or_null(40) %11)
  %26 = getelementptr inbounds nuw { i64, i64 }, ptr %7, i32 0, i32 0
  %27 = extractvalue { i64, i64 } %25, 0
  store i64 %27, ptr %26, align 4
  %28 = getelementptr inbounds nuw { i64, i64 }, ptr %7, i32 0, i32 1
  %29 = extractvalue { i64, i64 } %25, 1
  store i64 %29, ptr %28, align 4
  %30 = call noundef i32 @_ZNK5QRect5rightEv(ptr noundef align 4 dereferenceable_or_null(16) %7) #15
  call void @llvm.lifetime.start.p0(i64 8, ptr %8) #15
  %31 = call i64 @_ZNK7QWidget3posEv(ptr noundef align 8 dereferenceable_or_null(40) %11)
  store i64 %31, ptr %8, align 4
  %32 = call noundef i32 @_ZNK6QPoint1xEv(ptr noundef align 4 dereferenceable_or_null(8) %8) #15
  %33 = add i32 %30, %32
  %34 = load i32, ptr %5, align 4
  %35 = call noundef i32 @_ZNK5QSize5widthEv(ptr noundef align 4 dereferenceable_or_null(8) %6) #15
  %36 = add i32 %34, %35
  %37 = sub i32 %33, %36
  %38 = sub i32 %37, 2
  call void @llvm.lifetime.start.p0(i64 16, ptr %9) #15
  %39 = call { i64, i64 } @_ZNK7QWidget12contentsRectEv(ptr noundef align 8 dereferenceable_or_null(40) %11)
  %40 = getelementptr inbounds nuw { i64, i64 }, ptr %9, i32 0, i32 0
  %41 = extractvalue { i64, i64 } %39, 0
  store i64 %41, ptr %40, align 4
  %42 = getelementptr inbounds nuw { i64, i64 }, ptr %9, i32 0, i32 1
  %43 = extractvalue { i64, i64 } %39, 1
  store i64 %43, ptr %42, align 4
  %44 = call noundef i32 @_ZNK5QRect3topEv(ptr noundef align 4 dereferenceable_or_null(16) %9) #15
  call void @llvm.lifetime.start.p0(i64 8, ptr %10) #15
  %45 = call i64 @_ZNK7QWidget3posEv(ptr noundef align 8 dereferenceable_or_null(40) %11)
  store i64 %45, ptr %10, align 4
  %46 = call noundef i32 @_ZNK6QPoint1yEv(ptr noundef align 4 dereferenceable_or_null(8) %10) #15
  %47 = add i32 %44, %46
  call void @_ZN7QWidget4moveEii(ptr noundef align 8 dereferenceable_or_null(40) %24, i32 noundef %38, i32 noundef %47)
  call void @llvm.lifetime.end.p0(i64 8, ptr %10) #15
  call void @llvm.lifetime.end.p0(i64 16, ptr %9) #15
  call void @llvm.lifetime.end.p0(i64 8, ptr %8) #15
  call void @llvm.lifetime.end.p0(i64 16, ptr %7) #15
  %48 = getelementptr inbounds nuw %class.ApplyLineEdit, ptr %11, i32 0, i32 3
  %49 = load ptr, ptr %48, align 8
  %50 = call noundef i32 @_ZNK7QWidget6heightEv(ptr noundef align 8 dereferenceable_or_null(40) %11)
  call void @_ZN7QWidget16setMinimumHeightEi(ptr noundef align 8 dereferenceable_or_null(40) %49, i32 noundef %50)
  %51 = getelementptr inbounds nuw %class.ApplyLineEdit, ptr %11, i32 0, i32 3
  %52 = load ptr, ptr %51, align 8
  %53 = call noundef i32 @_ZNK7QWidget6heightEv(ptr noundef align 8 dereferenceable_or_null(40) %11)
  call void @_ZN7QWidget16setMaximumHeightEi(ptr noundef align 8 dereferenceable_or_null(40) %52, i32 noundef %53)
  call void @llvm.lifetime.end.p0(i64 8, ptr %6) #15
  call void @llvm.lifetime.end.p0(i64 4, ptr %5) #15
  ret void
}