; Function Attrs: mustprogress null_pointer_is_valid sspstrong uwtable
define void @_ZN13ApplyLineEdit11resizeEventEP12QResizeEvent(ptr noundef align 8 dereferenceable_or_null(80) %0, ptr readnone captures(none) %1) unnamed_addr #0 align 2 {
  %3 = alloca %class.QPoint, align 4
  %4 = tail call noundef ptr @_ZNK7QWidget5styleEv(ptr noundef align 8 dereferenceable_or_null(40) %0)
  %5 = load ptr, ptr %4, align 8
  %6 = getelementptr inbounds nuw i8, ptr %5, i64 224
  %7 = load ptr, ptr %6, align 8
  %8 = tail call noundef i32 %7(ptr noundef align 8 dereferenceable_or_null(16) %4, i32 noundef 5, ptr noundef null, ptr noundef null)
  %9 = getelementptr inbounds nuw i8, ptr %0, i64 72
  %10 = load ptr, ptr %9, align 8
  %11 = load ptr, ptr %10, align 8
  %12 = getelementptr inbounds nuw i8, ptr %11, i64 112
  %13 = load ptr, ptr %12, align 8
  %14 = tail call i64 %13(ptr noundef align 8 dereferenceable_or_null(40) %10)
  %.sroa.06.0.extract.trunc = trunc i64 %14 to i32
  %15 = load ptr, ptr %9, align 8
  %16 = tail call { i64, i64 } @_ZNK7QWidget12contentsRectEv(ptr noundef align 8 dereferenceable_or_null(40) %0)
  %17 = extractvalue { i64, i64 } %16, 1
  %.sroa.35.8.extract.trunc = trunc i64 %17 to i32
  %18 = tail call i64 @_ZNK7QWidget3posEv(ptr noundef align 8 dereferenceable_or_null(40) %0)
  %.sroa.02.0.extract.trunc = trunc i64 %18 to i32
  %19 = add i32 %8, %.sroa.06.0.extract.trunc
  %reass.sub = sub i32 %.sroa.02.0.extract.trunc, %19
  %20 = add i32 %reass.sub, -2
  %21 = add i32 %20, %.sroa.35.8.extract.trunc
  %22 = tail call { i64, i64 } @_ZNK7QWidget12contentsRectEv(ptr noundef align 8 dereferenceable_or_null(40) %0)
  %23 = extractvalue { i64, i64 } %22, 0
  %.sroa.01.4.extract.shift = lshr i64 %23, 32
  %.sroa.01.4.extract.trunc = trunc nuw i64 %.sroa.01.4.extract.shift to i32
  %24 = tail call i64 @_ZNK7QWidget3posEv(ptr noundef align 8 dereferenceable_or_null(40) %0)
  %.sroa.3.0.extract.shift = lshr i64 %24, 32
  %.sroa.3.0.extract.trunc = trunc nuw i64 %.sroa.3.0.extract.shift to i32
  %25 = add i32 %.sroa.01.4.extract.trunc, %.sroa.3.0.extract.trunc
  call void @llvm.lifetime.start.p0(i64 8, ptr nonnull %3) #14
  store i32 %21, ptr %3, align 4
  %26 = getelementptr inbounds nuw i8, ptr %3, i64 4
  store i32 %25, ptr %26, align 4
  call void @_ZN7QWidget4moveERK6QPoint(ptr noundef align 8 dereferenceable_or_null(40) %15, ptr noundef nonnull align 4 dereferenceable(8) %3)
  call void @llvm.lifetime.end.p0(i64 8, ptr nonnull %3) #14
  %27 = load ptr, ptr %9, align 8
  %28 = getelementptr inbounds nuw i8, ptr %0, i64 32
  %29 = load ptr, ptr %28, align 8
  %30 = getelementptr inbounds nuw i8, ptr %29, i64 32
  %31 = load i32, ptr %30, align 4
  %32 = getelementptr inbounds nuw i8, ptr %29, i64 24
  %33 = load i32, ptr %32, align 4
  %34 = add i32 %31, 1
  %35 = sub i32 %34, %33
  call void @_ZN7QWidget16setMinimumHeightEi(ptr noundef align 8 dereferenceable_or_null(40) %27, i32 noundef %35)
  %36 = load ptr, ptr %9, align 8
  %37 = load ptr, ptr %28, align 8
  %38 = getelementptr inbounds nuw i8, ptr %37, i64 32
  %39 = load i32, ptr %38, align 4
  %40 = getelementptr inbounds nuw i8, ptr %37, i64 24
  %41 = load i32, ptr %40, align 4
  %42 = add i32 %39, 1
  %43 = sub i32 %42, %41
  call void @_ZN7QWidget16setMaximumHeightEi(ptr noundef align 8 dereferenceable_or_null(40) %36, i32 noundef %43)
  ret void
}